target datalayout = "e-m:e-p270:32:32-p271:32:32-p272:64:64-i64:64-i128:128-f80:128-n8:16:32:64-S128"
target triple = "x86_64-pc-linux-gnu"

%struct.jv = type { i8, i8, i16, i32, %union.anon }
%union.anon = type { ptr }

@.str.2 = private unnamed_addr constant [5 x i8] c"HOME\00", align 1
@.str.3 = private unnamed_addr constant [31 x i8] c"Could not find home directory.\00", align 1

; Function Attrs: nounwind uwtable
define dso_local { i64, ptr } @get_home() #0 {
  %1 = alloca %struct.jv, align 8
  %2 = alloca ptr, align 8
  %3 = alloca %struct.jv, align 8
  %4 = alloca %struct.jv, align 8
  %5 = alloca %struct.jv, align 8
  call void @llvm.lifetime.start.p0(i64 8, ptr %2) #8
  %6 = call ptr @getenv(ptr noundef @.str.2) #8
  store ptr %6, ptr %2, align 8, !tbaa !4
  %7 = load ptr, ptr %2, align 8, !tbaa !4
  %8 = icmp ne ptr %7, null
  br i1 %8, label %24, label %9

9:                                                ; preds = %0
  call void @llvm.lifetime.start.p0(i64 16, ptr %3) #8
  %10 = call { i64, ptr } @jv_string(ptr noundef @.str.3)
  %11 = getelementptr inbounds nuw { i64, ptr }, ptr %4, i32 0, i32 0
  %12 = extractvalue { i64, ptr } %10, 0
  store i64 %12, ptr %11, align 8
  %13 = getelementptr inbounds nuw { i64, ptr }, ptr %4, i32 0, i32 1
  %14 = extractvalue { i64, ptr } %10, 1
  store ptr %14, ptr %13, align 8
  %15 = getelementptr inbounds nuw { i64, ptr }, ptr %4, i32 0, i32 0
  %16 = load i64, ptr %15, align 8
  %17 = getelementptr inbounds nuw { i64, ptr }, ptr %4, i32 0, i32 1
  %18 = load ptr, ptr %17, align 8
  %19 = call { i64, ptr } @jv_invalid_with_msg(i64 %16, ptr %18)
  %20 = getelementptr inbounds nuw { i64, ptr }, ptr %3, i32 0, i32 0
  %21 = extractvalue { i64, ptr } %19, 0
  store i64 %21, ptr %20, align 8
  %22 = getelementptr inbounds nuw { i64, ptr }, ptr %3, i32 0, i32 1
  %23 = extractvalue { i64, ptr } %19, 1
  store ptr %23, ptr %22, align 8
  call void @llvm.memcpy.p0.p0.i64(ptr align 8 %1, ptr align 8 %3, i64 16, i1 false), !tbaa.struct !9
  call void @llvm.lifetime.end.p0(i64 16, ptr %3) #8
  br label %31

24:                                               ; preds = %0
  call void @llvm.lifetime.start.p0(i64 16, ptr %5) #8
  %25 = load ptr, ptr %2, align 8, !tbaa !4
  %26 = call { i64, ptr } @jv_string(ptr noundef %25)
  %27 = getelementptr inbounds nuw { i64, ptr }, ptr %5, i32 0, i32 0
  %28 = extractvalue { i64, ptr } %26, 0
  store i64 %28, ptr %27, align 8
  %29 = getelementptr inbounds nuw { i64, ptr }, ptr %5, i32 0, i32 1
  %30 = extractvalue { i64, ptr } %26, 1
  store ptr %30, ptr %29, align 8
  call void @llvm.memcpy.p0.p0.i64(ptr align 8 %1, ptr align 8 %5, i64 16, i1 false), !tbaa.struct !9
  call void @llvm.lifetime.end.p0(i64 16, ptr %5) #8
  br label %31

31:                                               ; preds = %24, %9
  call void @llvm.lifetime.end.p0(i64 8, ptr %2) #8
  %32 = load { i64, ptr }, ptr %1, align 8
  ret { i64, ptr } %32
}