; Function Attrs: nounwind uwtable
define dso_local { i64, ptr } @get_home() local_unnamed_addr #0 {
  %1 = tail call ptr @getenv(ptr noundef nonnull @.str.2) #13
  %.not = icmp eq ptr %1, null
  br i1 %.not, label %2, label %7

2:                                                ; preds = %0
  %3 = tail call { i64, ptr } @jv_string(ptr noundef nonnull @.str.3) #13
  %4 = extractvalue { i64, ptr } %3, 0
  %5 = extractvalue { i64, ptr } %3, 1
  %6 = tail call { i64, ptr } @jv_invalid_with_msg(i64 %4, ptr %5) #13
  br label %9

7:                                                ; preds = %0
  %8 = tail call { i64, ptr } @jv_string(ptr noundef nonnull %1) #13
  br label %9

9:                                                ; preds = %7, %2
  %.pn = phi { i64, ptr } [ %8, %7 ], [ %6, %2 ]
  ret { i64, ptr } %.pn
}